; Function Attrs: mustprogress uwtable
define hidden noundef zeroext i1 @_ZNK19OpenColorIO_v2_5dev21GradingRGBCurveOpData9isInverseERSt10shared_ptrIKS0_E(ptr noundef nonnull readonly align 8 captures(none) dereferenceable(200) %0, ptr noundef nonnull readonly align 8 captures(none) dereferenceable(16) %1) local_unnamed_addr #3 align 2 {
  %3 = getelementptr inbounds nuw i8, ptr %0, i64 176
  %4 = load ptr, ptr %3, align 8, !tbaa !78
  %5 = getelementptr inbounds nuw i8, ptr %4, i64 12
  %6 = load i8, ptr %5, align 4, !tbaa !79, !range !76, !noundef !77
  %7 = trunc nuw i8 %6 to i1
  br i1 %7, label %39, label %8

8:                                                ; preds = %2
  %9 = load ptr, ptr %1, align 8, !tbaa !90
  %10 = getelementptr inbounds nuw i8, ptr %9, i64 176
  %11 = load ptr, ptr %10, align 8, !tbaa !78
  %12 = getelementptr inbounds nuw i8, ptr %11, i64 12
  %13 = load i8, ptr %12, align 4, !tbaa !79, !range !76, !noundef !77
  %14 = trunc nuw i8 %13 to i1
  br i1 %14, label %39, label %15

15:                                               ; preds = %8
  %16 = getelementptr inbounds nuw i8, ptr %0, i64 168
  %17 = load i32, ptr %16, align 8, !tbaa !35
  %18 = getelementptr inbounds nuw i8, ptr %9, i64 168
  %19 = load i32, ptr %18, align 8, !tbaa !35
  %20 = icmp eq i32 %17, %19
  br i1 %20, label %21, label %38

21:                                               ; preds = %15
  %.not = icmp eq i32 %17, 1
  br i1 %.not, label %22, label %28

22:                                               ; preds = %21
  %23 = getelementptr inbounds nuw i8, ptr %0, i64 192
  %24 = load i8, ptr %23, align 8, !tbaa !75, !range !76, !noundef !77
  %25 = getelementptr inbounds nuw i8, ptr %9, i64 192
  %26 = load i8, ptr %25, align 8, !tbaa !75, !range !76, !noundef !77
  %27 = icmp eq i8 %24, %26
  br i1 %27, label %28, label %38

28:                                               ; preds = %22, %21
  %29 = tail call noundef zeroext i1 @_ZNK19OpenColorIO_v2_5dev19DynamicPropertyImpl6equalsERKS0_(ptr noundef nonnull align 8 dereferenceable(13) %4, ptr noundef nonnull align 8 dereferenceable(13) %11)
  br i1 %29, label %30, label %38

30:                                               ; preds = %28
  %31 = getelementptr inbounds nuw i8, ptr %0, i64 196
  %32 = load i32, ptr %31, align 4, !tbaa !62
  %33 = load ptr, ptr %1, align 8, !tbaa !90
  %34 = getelementptr inbounds nuw i8, ptr %33, i64 196
  %35 = load i32, ptr %34, align 4, !tbaa !62
  %36 = tail call noundef i32 @_ZN19OpenColorIO_v2_5dev26CombineTransformDirectionsENS_18TransformDirectionES0_(i32 noundef %32, i32 noundef %35)
  %37 = icmp eq i32 %36, 1
  br i1 %37, label %39, label %38

38:                                               ; preds = %30, %28, %22, %15
  br label %39

39:                                               ; preds = %30, %2, %8, %38
  %.0 = phi i1 [ false, %38 ], [ false, %8 ], [ false, %2 ], [ true, %30 ]
  ret i1 %.0
}